target datalayout = "e-m:e-p270:32:32-p271:32:32-p272:64:64-i64:64-i128:128-f80:128-n8:16:32:64-S128"
target triple = "x86_64-pc-linux-gnu"

%struct.DecoderPriv = type { %struct.Decoder, ptr, ptr, ptr, ptr, %struct.AVRational, %struct.AVRational, i32, i32, i32, i32, i32, i32, i64, i64, %struct.AVRational, i64, i32, [2 x ptr], ptr, ptr, i32, i32, ptr, [32 x i8], ptr, i32, ptr, i32, ptr, i32, %struct.anon }
%struct.Decoder = type { ptr, i32, ptr, i32, i64, i64, i64 }
%struct.AVRational = type { i32, i32 }
%struct.anon = type { ptr, ptr }
%struct.SchedulerNode = type { i32, i32, i32 }
%struct.OutputFile = type { ptr, i32, ptr, ptr, i32, i64, i64, i32 }
%struct.OutputStream = type { ptr, i32, ptr, i32, ptr, ptr, ptr, i32, i32, i32, %struct.AVRational, %struct.KeyframeForceCtx, ptr, ptr, ptr, ptr, ptr, i64, i32, %struct.EncStats, %struct.EncStats, i32 }
%struct.KeyframeForceCtx = type { i32, i64, ptr, i32, i32, ptr, [5 x double], i32 }
%struct.EncStats = type { ptr, i32, ptr, %union.pthread_mutex_t, i32 }
%union.pthread_mutex_t = type { %struct.__pthread_mutex_s }
%struct.__pthread_mutex_s = type { i32, i32, i32, i32, i32, i16, i16, %struct.__pthread_internal_list }
%struct.__pthread_internal_list = type { ptr, ptr }
%struct.OptionsContext = type { ptr, i64, i64, i32, ptr, %struct.SpecifierOptList, %struct.SpecifierOptList, %struct.SpecifierOptList, %struct.SpecifierOptList, %struct.SpecifierOptList, %struct.SpecifierOptList, %struct.SpecifierOptList, %struct.SpecifierOptList, i64, i32, i32, float, float, double, i32, i32, i32, i32, %struct.SpecifierOptList, %struct.SpecifierOptList, %struct.SpecifierOptList, %struct.SpecifierOptList, %struct.SpecifierOptList, %struct.SpecifierOptList, %struct.SpecifierOptList, ptr, i32, ptr, i32, i32, i64, i64, i64, float, float, float, i32, i32, i32, i32, i32, i32, ptr, %struct.SpecifierOptList, %struct.SpecifierOptList, %struct.SpecifierOptList, %struct.SpecifierOptList, %struct.SpecifierOptList, %struct.SpecifierOptList, %struct.SpecifierOptList, %struct.SpecifierOptList, %struct.SpecifierOptList, %struct.SpecifierOptList, %struct.SpecifierOptList, %struct.SpecifierOptList, %struct.SpecifierOptList, %struct.SpecifierOptList, %struct.SpecifierOptList, %struct.SpecifierOptList, %struct.SpecifierOptList, %struct.SpecifierOptList, %struct.SpecifierOptList, %struct.SpecifierOptList, %struct.SpecifierOptList, %struct.SpecifierOptList, %struct.SpecifierOptList, %struct.SpecifierOptList, %struct.SpecifierOptList, %struct.SpecifierOptList, %struct.SpecifierOptList, %struct.SpecifierOptList, %struct.SpecifierOptList, %struct.SpecifierOptList, %struct.SpecifierOptList, %struct.SpecifierOptList, %struct.SpecifierOptList, %struct.SpecifierOptList, %struct.SpecifierOptList, %struct.SpecifierOptList, %struct.SpecifierOptList, %struct.SpecifierOptList, %struct.SpecifierOptList, %struct.SpecifierOptList, %struct.SpecifierOptList, %struct.SpecifierOptList, %struct.SpecifierOptList, %struct.SpecifierOptList, %struct.SpecifierOptList, %struct.SpecifierOptList, %struct.SpecifierOptList, %struct.SpecifierOptList, %struct.SpecifierOptList }
%struct.SpecifierOptList = type { ptr, i32, ptr, i32 }
%struct.OptionGroup = type { ptr, ptr, ptr, i32, ptr, ptr, ptr, ptr }
%struct.SpecifierOpt = type { ptr, %struct.StreamSpecifier, %union.anon }
%struct.StreamSpecifier = type { i32, i32, i64, i32, i8, i8, i32, ptr, ptr, ptr }
%union.anon = type { ptr }

@nb_decoders = external global i32, align 4
@decoders = external global ptr, align 8
@nb_output_files = external global i32, align 4
@.str.2 = private unnamed_addr constant [38 x i8] c"Invalid output file index '%d' in %s\0A\00", align 1
@output_files = external global ptr, align 8
@.str.3 = private unnamed_addr constant [40 x i8] c"Invalid output stream index '%d' in %s\0A\00", align 1
@.str.4 = private unnamed_addr constant [33 x i8] c"Output stream %s has no encoder\0A\00", align 1
@.str.5 = private unnamed_addr constant [21 x i8] c"No such decoder: %s\0A\00", align 1

; Function Attrs: nounwind uwtable
define i32 @dec_create(ptr noundef %0, ptr noundef %1, ptr noundef %2) #0 {
  %4 = alloca i32, align 4
  %5 = alloca ptr, align 8
  %6 = alloca ptr, align 8
  %7 = alloca ptr, align 8
  %8 = alloca ptr, align 8
  %9 = alloca ptr, align 8
  %10 = alloca ptr, align 8
  %11 = alloca i32, align 4
  %12 = alloca i32, align 4
  %13 = alloca ptr, align 8
  %14 = alloca i32, align 4
  %15 = alloca i32, align 4
  %16 = alloca i32, align 4
  %17 = alloca %struct.SchedulerNode, align 4
  %18 = alloca %struct.SchedulerNode, align 4
  %19 = alloca { i64, i32 }, align 4
  %20 = alloca { i64, i32 }, align 4
  %21 = alloca ptr, align 8
  store ptr %0, ptr %5, align 8, !tbaa !141
  store ptr %1, ptr %6, align 8, !tbaa !143
  store ptr %2, ptr %7, align 8, !tbaa !52
  call void @llvm.lifetime.start.p0(i64 8, ptr %8) #11
  call void @llvm.lifetime.start.p0(i64 8, ptr %9) #11
  call void @llvm.lifetime.start.p0(i64 8, ptr %10) #11
  call void @llvm.lifetime.start.p0(i64 4, ptr %11) #11
  call void @llvm.lifetime.start.p0(i64 4, ptr %12) #11
  call void @llvm.lifetime.start.p0(i64 8, ptr %13) #11
  call void @llvm.lifetime.start.p0(i64 4, ptr %14) #11
  call void @llvm.lifetime.start.p0(i64 4, ptr %15) #11
  %22 = load ptr, ptr %7, align 8, !tbaa !52
  %23 = call i32 @dec_alloc(ptr noundef %8, ptr noundef %22, i32 noundef 0)
  store i32 %23, ptr %15, align 4, !tbaa !14
  %24 = load i32, ptr %15, align 4, !tbaa !14
  %25 = icmp slt i32 %24, 0
  br i1 %25, label %26, label %28

26:                                               ; preds = %3
  %27 = load i32, ptr %15, align 4, !tbaa !14
  store i32 %27, ptr %4, align 4
  store i32 1, ptr %16, align 4
  br label %194

28:                                               ; preds = %3
  %29 = load i32, ptr @nb_decoders, align 4, !tbaa !14
  %30 = load ptr, ptr %8, align 8, !tbaa !12
  %31 = getelementptr inbounds nuw %struct.DecoderPriv, ptr %30, i32 0, i32 22
  store i32 %29, ptr %31, align 4, !tbaa !66
  %32 = load i32, ptr @nb_decoders, align 4, !tbaa !14
  %33 = add nsw i32 %32, 1
  %34 = call i32 @grow_array(ptr noundef @decoders, i32 noundef 8, ptr noundef @nb_decoders, i32 noundef %33)
  store i32 %34, ptr %15, align 4, !tbaa !14
  %35 = load i32, ptr %15, align 4, !tbaa !14
  %36 = icmp slt i32 %35, 0
  br i1 %36, label %37, label %39

37:                                               ; preds = %28
  call void @dec_free(ptr noundef %8)
  %38 = load i32, ptr %15, align 4, !tbaa !14
  store i32 %38, ptr %4, align 4
  store i32 1, ptr %16, align 4
  br label %194

39:                                               ; preds = %28
  %40 = load ptr, ptr %8, align 8, !tbaa !12
  %41 = load ptr, ptr @decoders, align 8, !tbaa !4
  %42 = load i32, ptr @nb_decoders, align 4, !tbaa !14
  %43 = sub nsw i32 %42, 1
  %44 = sext i32 %43 to i64
  %45 = getelementptr inbounds ptr, ptr %41, i64 %44
  store ptr %40, ptr %45, align 8, !tbaa !10
  %46 = load ptr, ptr %6, align 8, !tbaa !143
  %47 = call i64 @strtol(ptr noundef %46, ptr noundef %13, i32 noundef 0) #11
  %48 = trunc i64 %47 to i32
  store i32 %48, ptr %11, align 4, !tbaa !14
  %49 = load i32, ptr %11, align 4, !tbaa !14
  %50 = icmp slt i32 %49, 0
  br i1 %50, label %55, label %51

51:                                               ; preds = %39
  %52 = load i32, ptr %11, align 4, !tbaa !14
  %53 = load i32, ptr @nb_output_files, align 4, !tbaa !14
  %54 = icmp sge i32 %52, %53
  br i1 %54, label %55, label %59

55:                                               ; preds = %51, %39
  %56 = load ptr, ptr %8, align 8, !tbaa !12
  %57 = load i32, ptr %11, align 4, !tbaa !14
  %58 = load ptr, ptr %6, align 8, !tbaa !143
  call void (ptr, i32, ptr, ...) @av_log(ptr noundef %56, i32 noundef 16, ptr noundef @.str.2, i32 noundef %57, ptr noundef %58)
  store i32 -22, ptr %4, align 4
  store i32 1, ptr %16, align 4
  br label %194

59:                                               ; preds = %51
  %60 = load ptr, ptr @output_files, align 8, !tbaa !144
  %61 = load i32, ptr %11, align 4, !tbaa !14
  %62 = sext i32 %61 to i64
  %63 = getelementptr inbounds ptr, ptr %60, i64 %62
  %64 = load ptr, ptr %63, align 8, !tbaa !146
  store ptr %64, ptr %9, align 8, !tbaa !146
  %65 = load ptr, ptr %13, align 8, !tbaa !143
  %66 = getelementptr inbounds i8, ptr %65, i64 1
  %67 = call i64 @strtol(ptr noundef %66, ptr noundef null, i32 noundef 0) #11
  %68 = trunc i64 %67 to i32
  store i32 %68, ptr %12, align 4, !tbaa !14
  %69 = load i32, ptr %12, align 4, !tbaa !14
  %70 = icmp slt i32 %69, 0
  br i1 %70, label %77, label %71

71:                                               ; preds = %59
  %72 = load i32, ptr %12, align 4, !tbaa !14
  %73 = load ptr, ptr %9, align 8, !tbaa !146
  %74 = getelementptr inbounds nuw %struct.OutputFile, ptr %73, i32 0, i32 4
  %75 = load i32, ptr %74, align 8, !tbaa !148
  %76 = icmp sge i32 %72, %75
  br i1 %76, label %77, label %81

77:                                               ; preds = %71, %59
  %78 = load ptr, ptr %8, align 8, !tbaa !12
  %79 = load i32, ptr %12, align 4, !tbaa !14
  %80 = load ptr, ptr %6, align 8, !tbaa !143
  call void (ptr, i32, ptr, ...) @av_log(ptr noundef %78, i32 noundef 16, ptr noundef @.str.3, i32 noundef %79, ptr noundef %80)
  store i32 -22, ptr %4, align 4
  store i32 1, ptr %16, align 4
  br label %194

81:                                               ; preds = %71
  %82 = load ptr, ptr %9, align 8, !tbaa !146
  %83 = getelementptr inbounds nuw %struct.OutputFile, ptr %82, i32 0, i32 3
  %84 = load ptr, ptr %83, align 8, !tbaa !151
  %85 = load i32, ptr %12, align 4, !tbaa !14
  %86 = sext i32 %85 to i64
  %87 = getelementptr inbounds ptr, ptr %84, i64 %86
  %88 = load ptr, ptr %87, align 8, !tbaa !152
  store ptr %88, ptr %10, align 8, !tbaa !152
  %89 = load ptr, ptr %10, align 8, !tbaa !152
  %90 = getelementptr inbounds nuw %struct.OutputStream, ptr %89, i32 0, i32 6
  %91 = load ptr, ptr %90, align 8, !tbaa !154
  %92 = icmp ne ptr %91, null
  br i1 %92, label %96, label %93

93:                                               ; preds = %81
  %94 = load ptr, ptr %8, align 8, !tbaa !12
  %95 = load ptr, ptr %6, align 8, !tbaa !143
  call void (ptr, i32, ptr, ...) @av_log(ptr noundef %94, i32 noundef 16, ptr noundef @.str.4, ptr noundef %95)
  store i32 -22, ptr %4, align 4
  store i32 1, ptr %16, align 4
  br label %194

96:                                               ; preds = %81
  %97 = load ptr, ptr %10, align 8, !tbaa !152
  %98 = getelementptr inbounds nuw %struct.OutputStream, ptr %97, i32 0, i32 1
  %99 = load i32, ptr %98, align 8, !tbaa !168
  %100 = load ptr, ptr %8, align 8, !tbaa !12
  %101 = getelementptr inbounds nuw %struct.DecoderPriv, ptr %100, i32 0, i32 0
  %102 = getelementptr inbounds nuw %struct.Decoder, ptr %101, i32 0, i32 1
  store i32 %99, ptr %102, align 8, !tbaa !84
  %103 = load ptr, ptr %10, align 8, !tbaa !152
  %104 = getelementptr inbounds nuw %struct.OutputStream, ptr %103, i32 0, i32 6
  %105 = load ptr, ptr %104, align 8, !tbaa !154
  %106 = call i32 @enc_loopback(ptr noundef %105)
  store i32 %106, ptr %15, align 4, !tbaa !14
  %107 = load i32, ptr %15, align 4, !tbaa !14
  %108 = icmp slt i32 %107, 0
  br i1 %108, label %109, label %111

109:                                              ; preds = %96
  %110 = load i32, ptr %15, align 4, !tbaa !14
  store i32 %110, ptr %4, align 4
  store i32 1, ptr %16, align 4
  br label %194

111:                                              ; preds = %96
  %112 = load i32, ptr %15, align 4, !tbaa !14
  store i32 %112, ptr %14, align 4, !tbaa !14
  %113 = load ptr, ptr %7, align 8, !tbaa !52
  %114 = getelementptr inbounds nuw %struct.SchedulerNode, ptr %17, i32 0, i32 0
  store i32 4, ptr %114, align 4, !tbaa !38
  %115 = getelementptr inbounds nuw %struct.SchedulerNode, ptr %17, i32 0, i32 1
  %116 = load i32, ptr %14, align 4, !tbaa !14
  store i32 %116, ptr %115, align 4, !tbaa !41
  %117 = getelementptr inbounds nuw %struct.SchedulerNode, ptr %17, i32 0, i32 2
  store i32 0, ptr %117, align 4, !tbaa !42
  %118 = getelementptr inbounds nuw %struct.SchedulerNode, ptr %18, i32 0, i32 0
  store i32 3, ptr %118, align 4, !tbaa !38
  %119 = getelementptr inbounds nuw %struct.SchedulerNode, ptr %18, i32 0, i32 1
  %120 = load ptr, ptr %8, align 8, !tbaa !12
  %121 = getelementptr inbounds nuw %struct.DecoderPriv, ptr %120, i32 0, i32 21
  %122 = load i32, ptr %121, align 8, !tbaa !40
  store i32 %122, ptr %119, align 4, !tbaa !41
  %123 = getelementptr inbounds nuw %struct.SchedulerNode, ptr %18, i32 0, i32 2
  store i32 0, ptr %123, align 4, !tbaa !42
  call void @llvm.memcpy.p0.p0.i64(ptr align 4 %19, ptr align 4 %17, i64 12, i1 false)
  %124 = getelementptr inbounds nuw { i64, i32 }, ptr %19, i32 0, i32 0
  %125 = load i64, ptr %124, align 4
  %126 = getelementptr inbounds nuw { i64, i32 }, ptr %19, i32 0, i32 1
  %127 = load i32, ptr %126, align 4
  call void @llvm.memcpy.p0.p0.i64(ptr align 4 %20, ptr align 4 %18, i64 12, i1 false)
  %128 = getelementptr inbounds nuw { i64, i32 }, ptr %20, i32 0, i32 0
  %129 = load i64, ptr %128, align 4
  %130 = getelementptr inbounds nuw { i64, i32 }, ptr %20, i32 0, i32 1
  %131 = load i32, ptr %130, align 4
  %132 = call i32 @sch_connect(ptr noundef %113, i64 %125, i32 %127, i64 %129, i32 %131)
  store i32 %132, ptr %15, align 4, !tbaa !14
  %133 = load i32, ptr %15, align 4, !tbaa !14
  %134 = icmp slt i32 %133, 0
  br i1 %134, label %135, label %137

135:                                              ; preds = %111
  %136 = load i32, ptr %15, align 4, !tbaa !14
  store i32 %136, ptr %4, align 4
  store i32 1, ptr %16, align 4
  br label %194

137:                                              ; preds = %111
  %138 = load ptr, ptr %8, align 8, !tbaa !12
  %139 = getelementptr inbounds nuw %struct.DecoderPriv, ptr %138, i32 0, i32 31
  %140 = getelementptr inbounds nuw %struct.anon, ptr %139, i32 0, i32 0
  %141 = load ptr, ptr %5, align 8, !tbaa !141
  %142 = getelementptr inbounds nuw %struct.OptionsContext, ptr %141, i32 0, i32 0
  %143 = load ptr, ptr %142, align 8, !tbaa !169
  %144 = getelementptr inbounds nuw %struct.OptionGroup, ptr %143, i32 0, i32 4
  %145 = load ptr, ptr %144, align 8, !tbaa !177
  %146 = call i32 @av_dict_copy(ptr noundef %140, ptr noundef %145, i32 noundef 0)
  store i32 %146, ptr %15, align 4, !tbaa !14
  %147 = load i32, ptr %15, align 4, !tbaa !14
  %148 = icmp slt i32 %147, 0
  br i1 %148, label %149, label %151

149:                                              ; preds = %137
  %150 = load i32, ptr %15, align 4, !tbaa !14
  store i32 %150, ptr %4, align 4
  store i32 1, ptr %16, align 4
  br label %194

151:                                              ; preds = %137
  %152 = load ptr, ptr %8, align 8, !tbaa !12
  %153 = load ptr, ptr %8, align 8, !tbaa !12
  %154 = getelementptr inbounds nuw %struct.DecoderPriv, ptr %153, i32 0, i32 31
  %155 = getelementptr inbounds nuw %struct.anon, ptr %154, i32 0, i32 0
  %156 = load ptr, ptr %155, align 8, !tbaa !181
  call void @multiview_check_manual(ptr noundef %152, ptr noundef %156)
  %157 = load ptr, ptr %5, align 8, !tbaa !141
  %158 = getelementptr inbounds nuw %struct.OptionsContext, ptr %157, i32 0, i32 5
  %159 = getelementptr inbounds nuw %struct.SpecifierOptList, ptr %158, i32 0, i32 1
  %160 = load i32, ptr %159, align 8, !tbaa !182
  %161 = icmp ne i32 %160, 0
  br i1 %161, label %162, label %193

162:                                              ; preds = %151
  call void @llvm.lifetime.start.p0(i64 8, ptr %21) #11
  %163 = load ptr, ptr %5, align 8, !tbaa !141
  %164 = getelementptr inbounds nuw %struct.OptionsContext, ptr %163, i32 0, i32 5
  %165 = getelementptr inbounds nuw %struct.SpecifierOptList, ptr %164, i32 0, i32 0
  %166 = load ptr, ptr %165, align 8, !tbaa !183
  %167 = load ptr, ptr %5, align 8, !tbaa !141
  %168 = getelementptr inbounds nuw %struct.OptionsContext, ptr %167, i32 0, i32 5
  %169 = getelementptr inbounds nuw %struct.SpecifierOptList, ptr %168, i32 0, i32 1
  %170 = load i32, ptr %169, align 8, !tbaa !182
  %171 = sub nsw i32 %170, 1
  %172 = sext i32 %171 to i64
  %173 = getelementptr inbounds %struct.SpecifierOpt, ptr %166, i64 %172
  %174 = getelementptr inbounds nuw %struct.SpecifierOpt, ptr %173, i32 0, i32 2
  %175 = load ptr, ptr %174, align 8, !tbaa !184
  store ptr %175, ptr %21, align 8, !tbaa !143
  %176 = load ptr, ptr %21, align 8, !tbaa !143
  %177 = call ptr @avcodec_find_decoder_by_name(ptr noundef %176)
  %178 = load ptr, ptr %8, align 8, !tbaa !12
  %179 = getelementptr inbounds nuw %struct.DecoderPriv, ptr %178, i32 0, i32 31
  %180 = getelementptr inbounds nuw %struct.anon, ptr %179, i32 0, i32 1
  store ptr %177, ptr %180, align 8, !tbaa !185
  %181 = load ptr, ptr %8, align 8, !tbaa !12
  %182 = getelementptr inbounds nuw %struct.DecoderPriv, ptr %181, i32 0, i32 31
  %183 = getelementptr inbounds nuw %struct.anon, ptr %182, i32 0, i32 1
  %184 = load ptr, ptr %183, align 8, !tbaa !185
  %185 = icmp ne ptr %184, null
  br i1 %185, label %189, label %186

186:                                              ; preds = %162
  %187 = load ptr, ptr %8, align 8, !tbaa !12
  %188 = load ptr, ptr %21, align 8, !tbaa !143
  call void (ptr, i32, ptr, ...) @av_log(ptr noundef %187, i32 noundef 16, ptr noundef @.str.5, ptr noundef %188)
  store i32 -1128613112, ptr %4, align 4
  store i32 1, ptr %16, align 4
  br label %190

189:                                              ; preds = %162
  store i32 0, ptr %16, align 4
  br label %190

190:                                              ; preds = %189, %186
  call void @llvm.lifetime.end.p0(i64 8, ptr %21) #11
  %191 = load i32, ptr %16, align 4
  switch i32 %191, label %194 [
    i32 0, label %192
  ]

192:                                              ; preds = %190
  br label %193

193:                                              ; preds = %192, %151
  store i32 0, ptr %4, align 4
  store i32 1, ptr %16, align 4
  br label %194

194:                                              ; preds = %193, %190, %149, %135, %109, %93, %77, %55, %37, %26
  call void @llvm.lifetime.end.p0(i64 4, ptr %15) #11
  call void @llvm.lifetime.end.p0(i64 4, ptr %14) #11
  call void @llvm.lifetime.end.p0(i64 8, ptr %13) #11
  call void @llvm.lifetime.end.p0(i64 4, ptr %12) #11
  call void @llvm.lifetime.end.p0(i64 4, ptr %11) #11
  call void @llvm.lifetime.end.p0(i64 8, ptr %10) #11
  call void @llvm.lifetime.end.p0(i64 8, ptr %9) #11
  call void @llvm.lifetime.end.p0(i64 8, ptr %8) #11
  %195 = load i32, ptr %4, align 4
  ret i32 %195
}