; Function Attrs: nounwind uwtable
define range(i32 -2147483648, 1) i32 @dec_create(ptr noundef readonly captures(none) %0, ptr noundef %1, ptr noundef %2) local_unnamed_addr #0 {
  %4 = alloca ptr, align 8
  %5 = alloca ptr, align 8
  call void @llvm.lifetime.start.p0(i64 8, ptr nonnull %4) #13
  call void @llvm.lifetime.start.p0(i64 8, ptr nonnull %5) #13
  %6 = call fastcc i32 @dec_alloc(ptr noundef %4, ptr noundef %2, i32 noundef 0)
  %7 = icmp slt i32 %6, 0
  br i1 %7, label %.critedge, label %8

8:                                                ; preds = %3
  %9 = load i32, ptr @nb_decoders, align 4, !tbaa !27
  %10 = load ptr, ptr %4, align 8, !tbaa !39
  %11 = getelementptr inbounds nuw i8, ptr %10, i64 204
  store i32 %9, ptr %11, align 4, !tbaa !44
  %12 = add nsw i32 %9, 1
  %13 = tail call i32 @grow_array(ptr noundef nonnull @decoders, i32 noundef 8, ptr noundef nonnull @nb_decoders, i32 noundef %12) #13
  %14 = icmp slt i32 %13, 0
  br i1 %14, label %15, label %16

15:                                               ; preds = %8
  call void @dec_free(ptr noundef nonnull %4)
  br label %.critedge

16:                                               ; preds = %8
  %17 = load ptr, ptr @decoders, align 8, !tbaa !132
  %18 = load i32, ptr @nb_decoders, align 4, !tbaa !27
  %19 = sext i32 %18 to i64
  %20 = getelementptr ptr, ptr %17, i64 %19
  %21 = getelementptr i8, ptr %20, i64 -8
  store ptr %10, ptr %21, align 8, !tbaa !4
  %22 = call i64 @strtol(ptr noundef %1, ptr noundef nonnull %5, i32 noundef 0) #13
  %23 = trunc i64 %22 to i32
  %24 = icmp sgt i32 %23, -1
  %25 = load i32, ptr @nb_output_files, align 4
  %.not = icmp sgt i32 %25, %23
  %or.cond = select i1 %24, i1 %.not, i1 false
  br i1 %or.cond, label %27, label %26

26:                                               ; preds = %16
  tail call void (ptr, i32, ptr, ...) @av_log(ptr noundef nonnull %10, i32 noundef 16, ptr noundef nonnull @.str.2, i32 noundef %23, ptr noundef %1) #13
  br label %.critedge

27:                                               ; preds = %16
  %28 = load ptr, ptr @output_files, align 8, !tbaa !134
  %29 = and i64 %22, 2147483647
  %30 = getelementptr inbounds nuw ptr, ptr %28, i64 %29
  %31 = load ptr, ptr %30, align 8, !tbaa !136
  %32 = load ptr, ptr %5, align 8, !tbaa !138
  %33 = getelementptr inbounds nuw i8, ptr %32, i64 1
  %34 = tail call i64 @strtol(ptr noundef nonnull captures(none) %33, ptr noundef null, i32 noundef 0) #13
  %35 = trunc i64 %34 to i32
  %36 = icmp slt i32 %35, 0
  br i1 %36, label %40, label %37

37:                                               ; preds = %27
  %38 = getelementptr inbounds nuw i8, ptr %31, i64 32
  %39 = load i32, ptr %38, align 8, !tbaa !139
  %.not54 = icmp sgt i32 %39, %35
  br i1 %.not54, label %41, label %40

40:                                               ; preds = %37, %27
  tail call void (ptr, i32, ptr, ...) @av_log(ptr noundef nonnull %10, i32 noundef 16, ptr noundef nonnull @.str.3, i32 noundef %35, ptr noundef %1) #13
  br label %.critedge

41:                                               ; preds = %37
  %42 = getelementptr inbounds nuw i8, ptr %31, i64 24
  %43 = load ptr, ptr %42, align 8, !tbaa !142
  %44 = and i64 %34, 2147483647
  %45 = getelementptr inbounds nuw ptr, ptr %43, i64 %44
  %46 = load ptr, ptr %45, align 8, !tbaa !143
  %47 = getelementptr inbounds nuw i8, ptr %46, i64 48
  %48 = load ptr, ptr %47, align 8, !tbaa !145
  %.not55 = icmp eq ptr %48, null
  br i1 %.not55, label %49, label %50

49:                                               ; preds = %41
  tail call void (ptr, i32, ptr, ...) @av_log(ptr noundef nonnull %10, i32 noundef 16, ptr noundef nonnull @.str.4, ptr noundef %1) #13
  br label %.critedge

50:                                               ; preds = %41
  %51 = getelementptr inbounds nuw i8, ptr %46, i64 8
  %52 = load i32, ptr %51, align 8, !tbaa !159
  %53 = getelementptr inbounds nuw i8, ptr %10, i64 8
  store i32 %52, ptr %53, align 8, !tbaa !59
  %54 = tail call i32 @enc_loopback(ptr noundef nonnull %48) #13
  %55 = icmp slt i32 %54, 0
  br i1 %55, label %.critedge, label %56

56:                                               ; preds = %50
  %57 = getelementptr inbounds nuw i8, ptr %10, i64 200
  %58 = load i32, ptr %57, align 8, !tbaa !26
  %.sroa.27.0.insert.ext = zext nneg i32 %54 to i64
  %.sroa.27.0.insert.shift = shl nuw nsw i64 %.sroa.27.0.insert.ext, 32
  %.sroa.06.0.insert.insert = or disjoint i64 %.sroa.27.0.insert.shift, 4
  %.sroa.25.0.insert.ext = zext i32 %58 to i64
  %.sroa.25.0.insert.shift = shl nuw i64 %.sroa.25.0.insert.ext, 32
  %.sroa.04.0.insert.insert = or disjoint i64 %.sroa.25.0.insert.shift, 3
  %59 = tail call i32 @sch_connect(ptr noundef %2, i64 %.sroa.06.0.insert.insert, i32 0, i64 %.sroa.04.0.insert.insert, i32 0) #13
  %60 = icmp slt i32 %59, 0
  br i1 %60, label %.critedge, label %61

61:                                               ; preds = %56
  %62 = getelementptr inbounds nuw i8, ptr %10, i64 296
  %63 = load ptr, ptr %0, align 8, !tbaa !160
  %64 = getelementptr inbounds nuw i8, ptr %63, i64 32
  %65 = load ptr, ptr %64, align 8, !tbaa !168
  %66 = tail call i32 @av_dict_copy(ptr noundef nonnull %62, ptr noundef %65, i32 noundef 0) #13
  %67 = icmp slt i32 %66, 0
  br i1 %67, label %.critedge, label %68

68:                                               ; preds = %61
  %69 = load ptr, ptr %62, align 8, !tbaa !172
  tail call fastcc void @multiview_check_manual(ptr noundef nonnull %10, ptr noundef %69)
  %70 = getelementptr inbounds nuw i8, ptr %0, i64 48
  %71 = load i32, ptr %70, align 8, !tbaa !173
  %.not56 = icmp eq i32 %71, 0
  br i1 %.not56, label %.critedge, label %72

72:                                               ; preds = %68
  %73 = getelementptr inbounds nuw i8, ptr %0, i64 40
  %74 = load ptr, ptr %73, align 8, !tbaa !174
  %75 = sext i32 %71 to i64
  %76 = getelementptr %struct.SpecifierOpt, ptr %74, i64 %75
  %77 = getelementptr i8, ptr %76, i64 -8
  %78 = load ptr, ptr %77, align 8, !tbaa !175
  %79 = tail call ptr @avcodec_find_decoder_by_name(ptr noundef %78) #13
  %80 = getelementptr inbounds nuw i8, ptr %10, i64 304
  store ptr %79, ptr %80, align 8, !tbaa !176
  %.not57.not = icmp eq ptr %79, null
  br i1 %.not57.not, label %81, label %.critedge

81:                                               ; preds = %72
  tail call void (ptr, i32, ptr, ...) @av_log(ptr noundef nonnull %10, i32 noundef 16, ptr noundef nonnull @.str.5, ptr noundef %78) #13
  br label %.critedge

.critedge:                                        ; preds = %68, %72, %81, %61, %56, %50, %3, %49, %40, %26, %15
  %.0 = phi i32 [ %13, %15 ], [ -22, %26 ], [ -22, %40 ], [ -1128613112, %81 ], [ -22, %49 ], [ %6, %3 ], [ %54, %50 ], [ %59, %56 ], [ %66, %61 ], [ 0, %72 ], [ 0, %68 ]
  call void @llvm.lifetime.end.p0(i64 8, ptr nonnull %5) #13
  call void @llvm.lifetime.end.p0(i64 8, ptr nonnull %4) #13
  ret i32 %.0
}